; Function Attrs: mustprogress nounwind willreturn uwtable
define dso_local range(i32 -5, 1) i32 @onig_region_resize(ptr noundef captures(none) initializes((4, 8)) %0, i32 noundef %1) local_unnamed_addr #6 {
  %3 = getelementptr inbounds nuw i8, ptr %0, i64 4
  store i32 %1, ptr %3, align 4, !tbaa !21
  %spec.store.select = tail call i32 @llvm.smax.i32(i32 %1, i32 10)
  %4 = load i32, ptr %0, align 8, !tbaa !27
  %5 = icmp eq i32 %4, 0
  br i1 %5, label %6, label %15

6:                                                ; preds = %2
  %7 = zext nneg i32 %spec.store.select to i64
  %8 = shl nuw nsw i64 %7, 2
  %9 = tail call noalias ptr @malloc(i64 noundef %8) #28
  %10 = getelementptr inbounds nuw i8, ptr %0, i64 8
  store ptr %9, ptr %10, align 8, !tbaa !23
  %11 = tail call noalias ptr @malloc(i64 noundef %8) #28
  %12 = getelementptr inbounds nuw i8, ptr %0, i64 16
  store ptr %11, ptr %12, align 8, !tbaa !22
  %13 = icmp eq ptr %9, null
  %14 = icmp eq ptr %11, null
  %or.cond = or i1 %13, %14
  br i1 %or.cond, label %29, label %.sink.split

15:                                               ; preds = %2
  %16 = icmp slt i32 %4, %spec.store.select
  br i1 %16, label %17, label %29

17:                                               ; preds = %15
  %18 = getelementptr inbounds nuw i8, ptr %0, i64 8
  %19 = load ptr, ptr %18, align 8, !tbaa !23
  %20 = zext nneg i32 %spec.store.select to i64
  %21 = shl nuw nsw i64 %20, 2
  %22 = tail call ptr @realloc(ptr noundef %19, i64 noundef %21) #29
  store ptr %22, ptr %18, align 8, !tbaa !23
  %23 = getelementptr inbounds nuw i8, ptr %0, i64 16
  %24 = load ptr, ptr %23, align 8, !tbaa !22
  %25 = tail call ptr @realloc(ptr noundef %24, i64 noundef %21) #29
  store ptr %25, ptr %23, align 8, !tbaa !22
  %26 = load ptr, ptr %18, align 8, !tbaa !23
  %27 = icmp eq ptr %26, null
  %28 = icmp eq ptr %25, null
  %or.cond25 = or i1 %28, %27
  br i1 %or.cond25, label %29, label %.sink.split

.sink.split:                                      ; preds = %17, %6
  store i32 %spec.store.select, ptr %0, align 8, !tbaa !27
  br label %29

29:                                               ; preds = %.sink.split, %15, %17, %6
  %.0 = phi i32 [ -5, %6 ], [ -5, %17 ], [ 0, %15 ], [ 0, %.sink.split ]
  ret i32 %.0
}